; Function Attrs: mustprogress uwtable
define void @_ZN6icu_7518BurmeseBreakEngineC2EPNS_17DictionaryMatcherER10UErrorCode(ptr noundef nonnull align 8 dereferenceable(816) %this, ptr noundef %adoptDictionary, ptr noundef nonnull align 4 dereferenceable(4) %status) unnamed_addr #0 align 2 personality ptr @__gxx_personality_v0 {
entry:
  %ref.tmp = alloca %"class.icu_75::UnicodeString", align 8
  %ref.tmp15 = alloca %"class.icu_75::UnicodeString", align 8
  tail call void @_ZN6icu_7519LanguageBreakEngineC2Ev(ptr noundef nonnull align 8 dereferenceable(8) %this)
  store ptr getelementptr inbounds ({ [9 x ptr] }, ptr @_ZTVN6icu_7521DictionaryBreakEngineE, i64 0, i32 0, i64 2), ptr %this, align 8
  %fSet.i = getelementptr inbounds i8, ptr %this, i64 8
  invoke void @_ZN6icu_7510UnicodeSetC1Ev(ptr noundef nonnull align 8 dereferenceable(200) %fSet.i)
          to label %_ZN6icu_7521DictionaryBreakEngineC2Ev.exit unwind label %lpad.i

common.resume:                                    ; preds = %ehcleanup38, %lpad.i
  %common.resume.op = phi { ptr, i32 } [ %0, %lpad.i ], [ %.pn.pn.pn.pn, %ehcleanup38 ]
  resume { ptr, i32 } %common.resume.op

lpad.i:                                           ; preds = %entry
  %0 = landingpad { ptr, i32 }
          cleanup
  tail call void @_ZN6icu_7519LanguageBreakEngineD2Ev(ptr noundef nonnull align 8 dereferenceable(8) %this) #9
  br label %common.resume

_ZN6icu_7521DictionaryBreakEngineC2Ev.exit:       ; preds = %entry
  store ptr getelementptr inbounds ({ [9 x ptr] }, ptr @_ZTVN6icu_7518BurmeseBreakEngineE, i64 0, i32 0, i64 2), ptr %this, align 8
  %fEndWordSet = getelementptr inbounds i8, ptr %this, i64 208
  invoke void @_ZN6icu_7510UnicodeSetC1Ev(ptr noundef nonnull align 8 dereferenceable(200) %fEndWordSet)
          to label %invoke.cont unwind label %lpad

invoke.cont:                                      ; preds = %_ZN6icu_7521DictionaryBreakEngineC2Ev.exit
  %fBeginWordSet = getelementptr inbounds i8, ptr %this, i64 408
  invoke void @_ZN6icu_7510UnicodeSetC1Ev(ptr noundef nonnull align 8 dereferenceable(200) %fBeginWordSet)
          to label %invoke.cont3 unwind label %lpad2

invoke.cont3:                                     ; preds = %invoke.cont
  %fMarkSet = getelementptr inbounds i8, ptr %this, i64 608
  invoke void @_ZN6icu_7510UnicodeSetC1Ev(ptr noundef nonnull align 8 dereferenceable(200) %fMarkSet)
          to label %invoke.cont5 unwind label %lpad4

invoke.cont5:                                     ; preds = %invoke.cont3
  %fDictionary = getelementptr inbounds i8, ptr %this, i64 808
  store ptr %adoptDictionary, ptr %fDictionary, align 8
  %call = invoke noundef nonnull align 8 dereferenceable(200) ptr @_ZN6icu_7510UnicodeSet3addEii(ptr noundef nonnull align 8 dereferenceable(200) %fBeginWordSet, i32 noundef 4096, i32 noundef 4138)
          to label %invoke.cont8 unwind label %lpad7

invoke.cont8:                                     ; preds = %invoke.cont5
  invoke void @_ZN6icu_7513UnicodeStringC1EPKDs(ptr noundef nonnull align 8 dereferenceable(64) %ref.tmp, ptr noundef nonnull @.str.4)
          to label %invoke.cont10 unwind label %lpad7

invoke.cont10:                                    ; preds = %invoke.cont8
  %call13 = invoke noundef nonnull align 8 dereferenceable(200) ptr @_ZN6icu_7510UnicodeSet12applyPatternERKNS_13UnicodeStringER10UErrorCode(ptr noundef nonnull align 8 dereferenceable(200) %fEndWordSet, ptr noundef nonnull align 8 dereferenceable(64) %ref.tmp, ptr noundef nonnull align 4 dereferenceable(4) %status)
          to label %invoke.cont12 unwind label %lpad11

invoke.cont12:                                    ; preds = %invoke.cont10
  call void @_ZN6icu_7513UnicodeStringD1Ev(ptr noundef nonnull align 8 dereferenceable(64) %ref.tmp) #9
  invoke void @_ZN6icu_7513UnicodeStringC1EPKDs(ptr noundef nonnull align 8 dereferenceable(64) %ref.tmp15, ptr noundef nonnull @.str.5)
          to label %invoke.cont16 unwind label %lpad7

invoke.cont16:                                    ; preds = %invoke.cont12
  %call19 = invoke noundef nonnull align 8 dereferenceable(200) ptr @_ZN6icu_7510UnicodeSet12applyPatternERKNS_13UnicodeStringER10UErrorCode(ptr noundef nonnull align 8 dereferenceable(200) %fMarkSet, ptr noundef nonnull align 8 dereferenceable(64) %ref.tmp15, ptr noundef nonnull align 4 dereferenceable(4) %status)
          to label %invoke.cont18 unwind label %lpad17

invoke.cont18:                                    ; preds = %invoke.cont16
  call void @_ZN6icu_7513UnicodeStringD1Ev(ptr noundef nonnull align 8 dereferenceable(64) %ref.tmp15) #9
  %call22 = invoke noundef nonnull align 8 dereferenceable(200) ptr @_ZN6icu_7510UnicodeSet3addEi(ptr noundef nonnull align 8 dereferenceable(200) %fMarkSet, i32 noundef 32)
          to label %invoke.cont21 unwind label %lpad7

invoke.cont21:                                    ; preds = %invoke.cont18
  %1 = load i32, ptr %status, align 4
  %cmp.i = icmp sgt i32 %1, 0
  br i1 %cmp.i, label %if.end, label %if.then

if.then:                                          ; preds = %invoke.cont21
  %vtable = load ptr, ptr %this, align 8
  %vfn = getelementptr inbounds i8, ptr %vtable, i64 40
  %2 = load ptr, ptr %vfn, align 8
  invoke void %2(ptr noundef nonnull align 8 dereferenceable(208) %this, ptr noundef nonnull align 8 dereferenceable(200) %fEndWordSet)
          to label %if.end unwind label %lpad7

lpad:                                             ; preds = %_ZN6icu_7521DictionaryBreakEngineC2Ev.exit
  %3 = landingpad { ptr, i32 }
          cleanup
  br label %ehcleanup38

lpad2:                                            ; preds = %invoke.cont
  %4 = landingpad { ptr, i32 }
          cleanup
  br label %ehcleanup37

lpad4:                                            ; preds = %invoke.cont3
  %5 = landingpad { ptr, i32 }
          cleanup
  br label %ehcleanup36

lpad7:                                            ; preds = %invoke.cont31, %invoke.cont28, %if.end, %if.then, %invoke.cont18, %invoke.cont12, %invoke.cont8, %invoke.cont5
  %6 = landingpad { ptr, i32 }
          cleanup
  br label %ehcleanup

lpad11:                                           ; preds = %invoke.cont10
  %7 = landingpad { ptr, i32 }
          cleanup
  call void @_ZN6icu_7513UnicodeStringD1Ev(ptr noundef nonnull align 8 dereferenceable(64) %ref.tmp) #9
  br label %ehcleanup

lpad17:                                           ; preds = %invoke.cont16
  %8 = landingpad { ptr, i32 }
          cleanup
  call void @_ZN6icu_7513UnicodeStringD1Ev(ptr noundef nonnull align 8 dereferenceable(64) %ref.tmp15) #9
  br label %ehcleanup

if.end:                                           ; preds = %if.then, %invoke.cont21
  %call29 = invoke noundef nonnull align 8 dereferenceable(200) ptr @_ZN6icu_7510UnicodeSet7compactEv(ptr noundef nonnull align 8 dereferenceable(200) %fMarkSet)
          to label %invoke.cont28 unwind label %lpad7

invoke.cont28:                                    ; preds = %if.end
  %call32 = invoke noundef nonnull align 8 dereferenceable(200) ptr @_ZN6icu_7510UnicodeSet7compactEv(ptr noundef nonnull align 8 dereferenceable(200) %fEndWordSet)
          to label %invoke.cont31 unwind label %lpad7

invoke.cont31:                                    ; preds = %invoke.cont28
  %call35 = invoke noundef nonnull align 8 dereferenceable(200) ptr @_ZN6icu_7510UnicodeSet7compactEv(ptr noundef nonnull align 8 dereferenceable(200) %fBeginWordSet)
          to label %invoke.cont34 unwind label %lpad7

invoke.cont34:                                    ; preds = %invoke.cont31
  ret void

ehcleanup:                                        ; preds = %lpad17, %lpad11, %lpad7
  %.pn = phi { ptr, i32 } [ %6, %lpad7 ], [ %8, %lpad17 ], [ %7, %lpad11 ]
  call void @_ZN6icu_7510UnicodeSetD1Ev(ptr noundef nonnull align 8 dereferenceable(200) %fMarkSet) #9
  br label %ehcleanup36

ehcleanup36:                                      ; preds = %ehcleanup, %lpad4
  %.pn.pn = phi { ptr, i32 } [ %.pn, %ehcleanup ], [ %5, %lpad4 ]
  call void @_ZN6icu_7510UnicodeSetD1Ev(ptr noundef nonnull align 8 dereferenceable(200) %fBeginWordSet) #9
  br label %ehcleanup37

ehcleanup37:                                      ; preds = %ehcleanup36, %lpad2
  %.pn.pn.pn = phi { ptr, i32 } [ %.pn.pn, %ehcleanup36 ], [ %4, %lpad2 ]
  call void @_ZN6icu_7510UnicodeSetD1Ev(ptr noundef nonnull align 8 dereferenceable(200) %fEndWordSet) #9
  br label %ehcleanup38

ehcleanup38:                                      ; preds = %ehcleanup37, %lpad
  %.pn.pn.pn.pn = phi { ptr, i32 } [ %.pn.pn.pn, %ehcleanup37 ], [ %3, %lpad ]
  store ptr getelementptr inbounds ({ [9 x ptr] }, ptr @_ZTVN6icu_7521DictionaryBreakEngineE, i64 0, i32 0, i64 2), ptr %this, align 8
  call void @_ZN6icu_7510UnicodeSetD1Ev(ptr noundef nonnull align 8 dereferenceable(200) %fSet.i) #9
  call void @_ZN6icu_7519LanguageBreakEngineD2Ev(ptr noundef nonnull align 8 dereferenceable(8) %this) #9
  br label %common.resume
}